; Function Attrs: mustprogress nofree norecurse nosync nounwind willreturn memory(read, inaccessiblemem: none) uwtable
define noundef float @_ZNK3gmx34VelocityScalingTemperatureCoupling27conservedEnergyContributionEv(ptr nocapture noundef nonnull readonly align 8 dereferenceable(256) %0) local_unnamed_addr #20 align 2 {
  %2 = getelementptr inbounds i8, ptr %0, i64 128
  %3 = load ptr, ptr %2, align 8
  %4 = getelementptr inbounds i8, ptr %0, i64 136
  %5 = load ptr, ptr %4, align 8
  %.not5.i = icmp eq ptr %3, %5
  br i1 %.not5.i, label %_ZSt10accumulateIN9__gnu_cxx17__normal_iteratorIPKdSt6vectorIdSaIdEEEEdET0_T_S9_S8_.exit, label %.lr.ph.i

.lr.ph.i:                                         ; preds = %1, %.lr.ph.i
  %.07.i = phi double [ %7, %.lr.ph.i ], [ 0.000000e+00, %1 ]
  %.sroa.02.06.i = phi ptr [ %8, %.lr.ph.i ], [ %3, %1 ]
  %6 = load double, ptr %.sroa.02.06.i, align 8
  %7 = fadd double %.07.i, %6
  %8 = getelementptr inbounds i8, ptr %.sroa.02.06.i, i64 8
  %.not.i = icmp eq ptr %8, %5
  br i1 %.not.i, label %_ZSt10accumulateIN9__gnu_cxx17__normal_iteratorIPKdSt6vectorIdSaIdEEEEdET0_T_S9_S8_.exit.loopexit, label %.lr.ph.i, !llvm.loop !79

_ZSt10accumulateIN9__gnu_cxx17__normal_iteratorIPKdSt6vectorIdSaIdEEEEdET0_T_S9_S8_.exit.loopexit: ; preds = %.lr.ph.i
  %9 = fptrunc double %7 to float
  br label %_ZSt10accumulateIN9__gnu_cxx17__normal_iteratorIPKdSt6vectorIdSaIdEEEEdET0_T_S9_S8_.exit

_ZSt10accumulateIN9__gnu_cxx17__normal_iteratorIPKdSt6vectorIdSaIdEEEEdET0_T_S9_S8_.exit: ; preds = %_ZSt10accumulateIN9__gnu_cxx17__normal_iteratorIPKdSt6vectorIdSaIdEEEEdET0_T_S9_S8_.exit.loopexit, %1
  %.0.lcssa.i = phi float [ 0.000000e+00, %1 ], [ %9, %_ZSt10accumulateIN9__gnu_cxx17__normal_iteratorIPKdSt6vectorIdSaIdEEEEdET0_T_S9_S8_.exit.loopexit ]
  ret float %.0.lcssa.i
}